; Function Attrs: mustprogress nounwind uwtable
define hidden noundef i32 @_ZN12WorkerPolicy27calc_default_active_workersEmmmm(i64 noundef %0, i64 noundef %1, i64 noundef %2, i64 noundef %3) local_unnamed_addr #0 align 2 {
  %5 = shl i64 %3, 1
  %6 = tail call noundef i64 @llvm.umax.i64(i64 %5, i64 %1)
  %7 = load ptr, ptr @_ZN8Universe14_collectedHeapE, align 8
  %8 = load ptr, ptr %7, align 8
  %9 = getelementptr inbounds i8, ptr %8, i64 88
  %10 = load ptr, ptr %9, align 8
  %11 = tail call noundef i64 %10(ptr noundef nonnull align 8 dereferenceable(104) %7) #5
  %12 = load i64, ptr @HeapSizePerGCThread, align 8
  %13 = udiv i64 %11, %12
  %14 = tail call noundef i64 @llvm.umax.i64(i64 %13, i64 2)
  %15 = tail call noundef i64 @llvm.umax.i64(i64 %6, i64 %14)
  %16 = tail call noundef i64 @llvm.umin.i64(i64 %15, i64 %0)
  %17 = icmp ult i64 %16, %2
  br i1 %17, label %18, label %22

18:                                               ; preds = %4
  %19 = add i64 %16, %2
  %20 = lshr i64 %19, 1
  %21 = tail call noundef i64 @llvm.umax.i64(i64 %1, i64 %20)
  br label %22

22:                                               ; preds = %18, %4
  %.0 = phi i64 [ %21, %18 ], [ %16, %4 ]
  %23 = load volatile ptr, ptr getelementptr inbounds (i8, ptr @_ZN16LogTagSetMappingILN6LogTag4typeE49ELS1_158ELS1_0ELS1_0ELS1_0ELS1_0EE7_tagsetE, i64 48), align 8
  %.not = icmp eq ptr %23, null
  br i1 %.not, label %25, label %24

24:                                               ; preds = %22
  tail call void (ptr, ...) @_ZN7LogImplILN6LogTag4typeE49ELS1_158ELS1_0ELS1_0ELS1_0ELS1_0EE5writeILN8LogLevel4typeE1EEEvPKcz(ptr noundef nonnull @.str, i64 noundef %2, i64 noundef %.0, i64 noundef %2, i64 noundef %6, i64 noundef %14)
  br label %25

25:                                               ; preds = %22, %24
  %26 = trunc i64 %.0 to i32
  ret i32 %26
}